target datalayout = "e-m:e-p270:32:32-p271:32:32-p272:64:64-i64:64-i128:128-f80:128-n8:16:32:64-S128"
target triple = "x86_64-pc-linux-gnu"

%struct.oidvector = type { i32, i32, i32, i32, i32, i32, [0 x i32] }

@.str.1 = private unnamed_addr constant [15 x i8] c"functioncmds.c\00", align 1
@.str.63 = private unnamed_addr constant [42 x i8] c"function %s already exists in schema \22%s\22\00", align 1
@__func__.IsThereFunctionInNamespace = private unnamed_addr constant [27 x i8] c"IsThereFunctionInNamespace\00", align 1

; Function Attrs: inlinehint nounwind uwtable
define internal i64 @ObjectIdGetDatum(i32 noundef %0) #2 {
  %2 = alloca i32, align 4
  store i32 %0, ptr %2, align 4
  %3 = load i32, ptr %2, align 4
  %4 = zext i32 %3 to i64
  ret i64 %4
}

; Function Attrs: inlinehint nounwind uwtable
define internal i64 @PointerGetDatum(ptr noundef %0) #2 {
  %2 = alloca ptr, align 8
  store ptr %0, ptr %2, align 8
  %3 = load ptr, ptr %2, align 8
  %4 = ptrtoint ptr %3 to i64
  ret i64 %4
}

; Function Attrs: inlinehint nounwind uwtable
define internal i64 @CStringGetDatum(ptr noundef %0) #2 {
  %2 = alloca ptr, align 8
  store ptr %0, ptr %2, align 8
  %3 = load ptr, ptr %2, align 8
  %4 = call i64 @PointerGetDatum(ptr noundef %3)
  ret i64 %4
}

; Function Attrs: nounwind uwtable
define dso_local void @IsThereFunctionInNamespace(ptr noundef %0, i32 noundef %1, ptr noundef %2, i32 noundef %3) #0 {
  %5 = alloca ptr, align 8
  %6 = alloca i32, align 4
  %7 = alloca ptr, align 8
  %8 = alloca i32, align 4
  store ptr %0, ptr %5, align 8
  store i32 %1, ptr %6, align 4
  store ptr %2, ptr %7, align 8
  store i32 %3, ptr %8, align 4
  %9 = load ptr, ptr %5, align 8
  %10 = call i64 @CStringGetDatum(ptr noundef %9)
  %11 = load ptr, ptr %7, align 8
  %12 = call i64 @PointerGetDatum(ptr noundef %11)
  %13 = load i32, ptr %8, align 4
  %14 = call i64 @ObjectIdGetDatum(i32 noundef %13)
  %15 = call zeroext i1 @SearchSysCacheExists(i32 noundef 46, i64 noundef %10, i64 noundef %12, i64 noundef %14, i64 noundef 0)
  br i1 %15, label %16, label %35

16:                                               ; preds = %4
  br label %17

17:                                               ; preds = %16
  br i1 true, label %18, label %20

18:                                               ; preds = %17
  %19 = call zeroext i1 @errstart_cold(i32 noundef 21, ptr noundef null) #10
  br i1 %19, label %22, label %33

20:                                               ; preds = %17
  %21 = call zeroext i1 @errstart(i32 noundef 21, ptr noundef null)
  br i1 %21, label %22, label %33

22:                                               ; preds = %20, %18
  %23 = call i32 @errcode(i32 noundef 50884740)
  %24 = load ptr, ptr %5, align 8
  %25 = load i32, ptr %6, align 4
  %26 = load ptr, ptr %7, align 8
  %27 = getelementptr inbounds nuw %struct.oidvector, ptr %26, i32 0, i32 6
  %28 = getelementptr inbounds [0 x i32], ptr %27, i64 0, i64 0
  %29 = call ptr @funcname_signature_string(ptr noundef %24, i32 noundef %25, ptr noundef null, ptr noundef %28)
  %30 = load i32, ptr %8, align 4
  %31 = call ptr @get_namespace_name(i32 noundef %30)
  %32 = call i32 (ptr, ...) @errmsg(ptr noundef @.str.63, ptr noundef %29, ptr noundef %31)
  call void @errfinish(ptr noundef @.str.1, i32 noundef 2071, ptr noundef @__func__.IsThereFunctionInNamespace)
  br label %33

33:                                               ; preds = %22, %20, %18
  unreachable

34:                                               ; No predecessors!
  br label %35

35:                                               ; preds = %34, %4
  ret void
}