; Function Attrs: nounwind uwtable
define dso_local void @IsThereFunctionInNamespace(ptr noundef %0, i32 noundef %1, ptr noundef %2, i32 noundef %3) local_unnamed_addr #0 {
  %5 = ptrtoint ptr %0 to i64
  %6 = ptrtoint ptr %2 to i64
  %7 = zext i32 %3 to i64
  %8 = tail call zeroext i1 @SearchSysCacheExists(i32 noundef 46, i64 noundef %5, i64 noundef %6, i64 noundef %7, i64 noundef 0) #8
  br i1 %8, label %9, label %16

9:                                                ; preds = %4
  %10 = tail call zeroext i1 @errstart_cold(i32 noundef 21, ptr noundef null) #9
  tail call void @llvm.assume(i1 %10)
  %11 = tail call i32 @errcode(i32 noundef 50884740) #8
  %12 = getelementptr inbounds nuw i8, ptr %2, i64 24
  %13 = tail call ptr @funcname_signature_string(ptr noundef %0, i32 noundef %1, ptr noundef null, ptr noundef nonnull %12) #8
  %14 = tail call ptr @get_namespace_name(i32 noundef %3) #8
  %15 = tail call i32 (ptr, ...) @errmsg(ptr noundef nonnull @.str.63, ptr noundef %13, ptr noundef %14) #8
  tail call void @errfinish(ptr noundef nonnull @.str.1, i32 noundef 2071, ptr noundef nonnull @__func__.IsThereFunctionInNamespace) #8
  unreachable

16:                                               ; preds = %4
  ret void
}